target datalayout = "e-m:e-p270:32:32-p271:32:32-p272:64:64-i64:64-i128:128-f80:128-n8:16:32:64-S128"
target triple = "x86_64-pc-linux-gnu"

@.str = private unnamed_addr constant [3 x i8] c"%s\00", align 1
@.str.1 = private unnamed_addr constant [4 x i8] c"%s\0A\00", align 1

; Function Attrs: mustprogress uwtable
define void @_ZNK5Ipopt10Journalist20PrintStringOverLinesENS_13EJournalLevelENS_16EJournalCategoryEiiRKNSt7__cxx1112basic_stringIcSt11char_traitsIcESaIcEEE(ptr noundef nonnull align 8 dereferenceable(40) %0, i32 noundef %1, i32 noundef %2, i32 noundef %3, i32 noundef %4, ptr noundef nonnull align 8 dereferenceable(32) %5) unnamed_addr #0 align 2 {
  %7 = alloca ptr, align 8
  %8 = alloca i32, align 4
  %9 = alloca i32, align 4
  %10 = alloca i32, align 4
  %11 = alloca i32, align 4
  %12 = alloca ptr, align 8
  %13 = alloca [1024 x i8], align 16
  %14 = alloca i64, align 8
  %15 = alloca i64, align 8
  %16 = alloca i8, align 1
  %17 = alloca i32, align 4
  %18 = alloca i64, align 8
  %19 = alloca i32, align 4
  %20 = alloca i32, align 4
  store ptr %0, ptr %7, align 8
  store i32 %1, ptr %8, align 4
  store i32 %2, ptr %9, align 4
  store i32 %3, ptr %10, align 4
  store i32 %4, ptr %11, align 4
  store ptr %5, ptr %12, align 8
  %21 = load ptr, ptr %7, align 8
  store i64 0, ptr %14, align 8
  store i64 0, ptr %15, align 8
  store i8 1, ptr %16, align 1
  store i32 0, ptr %17, align 4
  br label %22

22:                                               ; preds = %142, %6
  %23 = load i64, ptr %14, align 8
  %24 = load ptr, ptr %12, align 8
  %25 = call noundef i64 @_ZNKSt7__cxx1112basic_stringIcSt11char_traitsIcESaIcEE6lengthEv(ptr noundef nonnull align 8 dereferenceable(32) %24) #11
  %26 = icmp ult i64 %23, %25
  br i1 %26, label %27, label %144

27:                                               ; preds = %22
  %28 = load i64, ptr %14, align 8
  store i64 %28, ptr %18, align 8
  store i32 0, ptr %19, align 4
  br label %29

29:                                               ; preds = %57, %27
  %30 = load i32, ptr %19, align 4
  %31 = load i32, ptr %11, align 4
  %32 = icmp slt i32 %30, %31
  br i1 %32, label %33, label %38

33:                                               ; preds = %29
  %34 = load i64, ptr %18, align 8
  %35 = load ptr, ptr %12, align 8
  %36 = call noundef i64 @_ZNKSt7__cxx1112basic_stringIcSt11char_traitsIcESaIcEE6lengthEv(ptr noundef nonnull align 8 dereferenceable(32) %35) #11
  %37 = icmp ult i64 %34, %36
  br label %38

38:                                               ; preds = %33, %29
  %39 = phi i1 [ false, %29 ], [ %37, %33 ]
  br i1 %39, label %40, label %64

40:                                               ; preds = %38
  %41 = load ptr, ptr %12, align 8
  %42 = load i64, ptr %18, align 8
  %43 = call noundef nonnull align 1 dereferenceable(1) ptr @_ZNKSt7__cxx1112basic_stringIcSt11char_traitsIcESaIcEEixEm(ptr noundef nonnull align 8 dereferenceable(32) %41, i64 noundef %42) #11
  %44 = load i8, ptr %43, align 1
  %45 = load i32, ptr %17, align 4
  %46 = sext i32 %45 to i64
  %47 = getelementptr inbounds [1024 x i8], ptr %13, i64 0, i64 %46
  store i8 %44, ptr %47, align 1
  %48 = load ptr, ptr %12, align 8
  %49 = load i64, ptr %18, align 8
  %50 = call noundef nonnull align 1 dereferenceable(1) ptr @_ZNKSt7__cxx1112basic_stringIcSt11char_traitsIcESaIcEEixEm(ptr noundef nonnull align 8 dereferenceable(32) %48, i64 noundef %49) #11
  %51 = load i8, ptr %50, align 1
  %52 = sext i8 %51 to i32
  %53 = icmp eq i32 %52, 32
  br i1 %53, label %54, label %57

54:                                               ; preds = %40
  %55 = load i64, ptr %18, align 8
  %56 = add i64 %55, 1
  store i64 %56, ptr %15, align 8
  br label %57

57:                                               ; preds = %54, %40
  %58 = load i32, ptr %19, align 4
  %59 = add nsw i32 %58, 1
  store i32 %59, ptr %19, align 4
  %60 = load i32, ptr %17, align 4
  %61 = add nsw i32 %60, 1
  store i32 %61, ptr %17, align 4
  %62 = load i64, ptr %18, align 8
  %63 = add i64 %62, 1
  store i64 %63, ptr %18, align 8
  br label %29, !llvm.loop !4

64:                                               ; preds = %38
  %65 = load i64, ptr %18, align 8
  %66 = load ptr, ptr %12, align 8
  %67 = call noundef i64 @_ZNKSt7__cxx1112basic_stringIcSt11char_traitsIcESaIcEE6lengthEv(ptr noundef nonnull align 8 dereferenceable(32) %66) #11
  %68 = icmp eq i64 %65, %67
  br i1 %68, label %69, label %79

69:                                               ; preds = %64
  %70 = load i32, ptr %17, align 4
  %71 = sext i32 %70 to i64
  %72 = getelementptr inbounds [1024 x i8], ptr %13, i64 0, i64 %71
  store i8 0, ptr %72, align 1
  %73 = load i32, ptr %8, align 4
  %74 = load i32, ptr %9, align 4
  %75 = getelementptr inbounds [1024 x i8], ptr %13, i64 0, i64 0
  %76 = load ptr, ptr %21, align 8
  %77 = getelementptr inbounds ptr, ptr %76, i64 2
  %78 = load ptr, ptr %77, align 8
  call void (ptr, i32, i32, ptr, ...) %78(ptr noundef nonnull align 8 dereferenceable(40) %21, i32 noundef %73, i32 noundef %74, ptr noundef @.str, ptr noundef %75)
  br label %144

79:                                               ; preds = %64
  %80 = load i64, ptr %15, align 8
  %81 = load i64, ptr %14, align 8
  %82 = icmp eq i64 %80, %81
  br i1 %82, label %83, label %110

83:                                               ; preds = %79
  %84 = load ptr, ptr %12, align 8
  %85 = load i64, ptr %18, align 8
  %86 = call noundef nonnull align 1 dereferenceable(1) ptr @_ZNKSt7__cxx1112basic_stringIcSt11char_traitsIcESaIcEEixEm(ptr noundef nonnull align 8 dereferenceable(32) %84, i64 noundef %85) #11
  %87 = load i8, ptr %86, align 1
  %88 = sext i8 %87 to i32
  %89 = icmp eq i32 %88, 32
  br i1 %89, label %90, label %98

90:                                               ; preds = %83
  %91 = load i32, ptr %17, align 4
  %92 = sext i32 %91 to i64
  %93 = getelementptr inbounds [1024 x i8], ptr %13, i64 0, i64 %92
  store i8 0, ptr %93, align 1
  %94 = load i64, ptr %18, align 8
  %95 = add i64 %94, 1
  store i64 %95, ptr %15, align 8
  %96 = load i64, ptr %18, align 8
  %97 = add i64 %96, 1
  store i64 %97, ptr %14, align 8
  br label %109

98:                                               ; preds = %83
  %99 = load i32, ptr %17, align 4
  %100 = sub nsw i32 %99, 1
  %101 = sext i32 %100 to i64
  %102 = getelementptr inbounds [1024 x i8], ptr %13, i64 0, i64 %101
  store i8 45, ptr %102, align 1
  %103 = load i32, ptr %17, align 4
  %104 = sext i32 %103 to i64
  %105 = getelementptr inbounds [1024 x i8], ptr %13, i64 0, i64 %104
  store i8 0, ptr %105, align 1
  %106 = load i64, ptr %18, align 8
  %107 = sub i64 %106, 1
  store i64 %107, ptr %15, align 8
  %108 = load i64, ptr %15, align 8
  store i64 %108, ptr %14, align 8
  br label %109

109:                                              ; preds = %98, %90
  br label %120

110:                                              ; preds = %79
  %111 = load i32, ptr %17, align 4
  %112 = sext i32 %111 to i64
  %113 = load i64, ptr %18, align 8
  %114 = load i64, ptr %15, align 8
  %115 = sub i64 %113, %114
  %116 = sub i64 %112, %115
  %117 = sub i64 %116, 1
  %118 = getelementptr inbounds [1024 x i8], ptr %13, i64 0, i64 %117
  store i8 0, ptr %118, align 1
  %119 = load i64, ptr %15, align 8
  store i64 %119, ptr %14, align 8
  br label %120

120:                                              ; preds = %110, %109
  %121 = load i32, ptr %8, align 4
  %122 = load i32, ptr %9, align 4
  %123 = getelementptr inbounds [1024 x i8], ptr %13, i64 0, i64 0
  %124 = load ptr, ptr %21, align 8
  %125 = getelementptr inbounds ptr, ptr %124, i64 2
  %126 = load ptr, ptr %125, align 8
  call void (ptr, i32, i32, ptr, ...) %126(ptr noundef nonnull align 8 dereferenceable(40) %21, i32 noundef %121, i32 noundef %122, ptr noundef @.str.1, ptr noundef %123)
  %127 = load i8, ptr %16, align 1
  %128 = trunc i8 %127 to i1
  br i1 %128, label %129, label %142

129:                                              ; preds = %120
  store i32 0, ptr %20, align 4
  br label %130

130:                                              ; preds = %138, %129
  %131 = load i32, ptr %20, align 4
  %132 = load i32, ptr %10, align 4
  %133 = icmp slt i32 %131, %132
  br i1 %133, label %134, label %141

134:                                              ; preds = %130
  %135 = load i32, ptr %20, align 4
  %136 = sext i32 %135 to i64
  %137 = getelementptr inbounds [1024 x i8], ptr %13, i64 0, i64 %136
  store i8 32, ptr %137, align 1
  br label %138

138:                                              ; preds = %134
  %139 = load i32, ptr %20, align 4
  %140 = add nsw i32 %139, 1
  store i32 %140, ptr %20, align 4
  br label %130, !llvm.loop !6

141:                                              ; preds = %130
  store i8 0, ptr %16, align 1
  br label %142

142:                                              ; preds = %141, %120
  %143 = load i32, ptr %10, align 4
  store i32 %143, ptr %17, align 4
  br label %22, !llvm.loop !7

144:                                              ; preds = %69, %22
  ret void
}