; Function Attrs: mustprogress uwtable
define void @_ZNK5Ipopt10Journalist20PrintStringOverLinesENS_13EJournalLevelENS_16EJournalCategoryEiiRKNSt7__cxx1112basic_stringIcSt11char_traitsIcESaIcEEE(ptr noundef nonnull align 8 dereferenceable(40) %0, i32 noundef %1, i32 noundef %2, i32 noundef %3, i32 noundef %4, ptr noundef nonnull align 8 dereferenceable(32) %5) unnamed_addr #3 align 2 {
  %7 = alloca [1024 x i8], align 16
  %8 = tail call noundef i64 @_ZNKSt7__cxx1112basic_stringIcSt11char_traitsIcESaIcEE6lengthEv(ptr noundef nonnull align 8 dereferenceable(32) %5) #20
  %.not71 = icmp eq i64 %8, 0
  br i1 %.not71, label %.loopexit54, label %.preheader53.lr.ph

.preheader53.lr.ph:                               ; preds = %6
  %9 = icmp sgt i32 %4, 0
  %10 = icmp slt i32 %3, 1
  %11 = zext i32 %3 to i64
  br label %.preheader53

.preheader53:                                     ; preds = %.preheader53.lr.ph, %.loopexit
  %.04669 = phi i32 [ 0, %.preheader53.lr.ph ], [ %3, %.loopexit ]
  %.04768 = phi i8 [ 1, %.preheader53.lr.ph ], [ %.148, %.loopexit ]
  %.04967 = phi i64 [ 0, %.preheader53.lr.ph ], [ %.3, %.loopexit ]
  br i1 %9, label %.lr.ph.preheader, label %.critedge

.lr.ph.preheader:                                 ; preds = %.preheader53
  %12 = sext i32 %.04669 to i64
  %13 = add i32 %.04669, %4
  br label %.lr.ph

.lr.ph:                                           ; preds = %.lr.ph.preheader, %16
  %indvars.iv = phi i64 [ %12, %.lr.ph.preheader ], [ %indvars.iv.next, %16 ]
  %.04458 = phi i32 [ 0, %.lr.ph.preheader ], [ %24, %16 ]
  %.04557 = phi i64 [ %.04967, %.lr.ph.preheader ], [ %23, %16 ]
  %.15055 = phi i64 [ %.04967, %.lr.ph.preheader ], [ %spec.select, %16 ]
  %14 = call noundef i64 @_ZNKSt7__cxx1112basic_stringIcSt11char_traitsIcESaIcEE6lengthEv(ptr noundef nonnull align 8 dereferenceable(32) %5) #20
  %15 = icmp ult i64 %.04557, %14
  br i1 %15, label %16, label %.critedge.loopexit.split.loop.exit78

16:                                               ; preds = %.lr.ph
  %17 = call noundef nonnull align 1 dereferenceable(1) ptr @_ZNKSt7__cxx1112basic_stringIcSt11char_traitsIcESaIcEEixEm(ptr noundef nonnull align 8 dereferenceable(32) %5, i64 noundef %.04557) #20
  %18 = load i8, ptr %17, align 1
  %19 = getelementptr inbounds [1024 x i8], ptr %7, i64 0, i64 %indvars.iv
  store i8 %18, ptr %19, align 1
  %20 = call noundef nonnull align 1 dereferenceable(1) ptr @_ZNKSt7__cxx1112basic_stringIcSt11char_traitsIcESaIcEEixEm(ptr noundef nonnull align 8 dereferenceable(32) %5, i64 noundef %.04557) #20
  %21 = load i8, ptr %20, align 1
  %22 = icmp eq i8 %21, 32
  %23 = add nuw i64 %.04557, 1
  %spec.select = select i1 %22, i64 %23, i64 %.15055
  %24 = add nuw nsw i32 %.04458, 1
  %indvars.iv.next = add nsw i64 %indvars.iv, 1
  %exitcond.not = icmp eq i32 %24, %4
  br i1 %exitcond.not, label %.critedge, label %.lr.ph, !llvm.loop !6

.critedge.loopexit.split.loop.exit78:             ; preds = %.lr.ph
  %25 = trunc i64 %indvars.iv to i32
  br label %.critedge

.critedge:                                        ; preds = %16, %.critedge.loopexit.split.loop.exit78, %.preheader53
  %.150.lcssa = phi i64 [ %.04967, %.preheader53 ], [ %.15055, %.critedge.loopexit.split.loop.exit78 ], [ %spec.select, %16 ]
  %.1.lcssa = phi i32 [ %.04669, %.preheader53 ], [ %25, %.critedge.loopexit.split.loop.exit78 ], [ %13, %16 ]
  %.045.lcssa = phi i64 [ %.04967, %.preheader53 ], [ %.04557, %.critedge.loopexit.split.loop.exit78 ], [ %23, %16 ]
  %26 = call noundef i64 @_ZNKSt7__cxx1112basic_stringIcSt11char_traitsIcESaIcEE6lengthEv(ptr noundef nonnull align 8 dereferenceable(32) %5) #20
  %27 = icmp eq i64 %.045.lcssa, %26
  br i1 %27, label %28, label %34

28:                                               ; preds = %.critedge
  %29 = sext i32 %.1.lcssa to i64
  %30 = getelementptr inbounds [1024 x i8], ptr %7, i64 0, i64 %29
  store i8 0, ptr %30, align 1
  %31 = load ptr, ptr %0, align 8
  %32 = getelementptr inbounds i8, ptr %31, i64 16
  %33 = load ptr, ptr %32, align 8
  call void (ptr, i32, i32, ptr, ...) %33(ptr noundef nonnull align 8 dereferenceable(40) %0, i32 noundef %1, i32 noundef %2, ptr noundef nonnull @.str, ptr noundef nonnull %7)
  br label %.loopexit54

34:                                               ; preds = %.critedge
  %35 = icmp eq i64 %.150.lcssa, %.04967
  br i1 %35, label %36, label %51

36:                                               ; preds = %34
  %37 = call noundef nonnull align 1 dereferenceable(1) ptr @_ZNKSt7__cxx1112basic_stringIcSt11char_traitsIcESaIcEEixEm(ptr noundef nonnull align 8 dereferenceable(32) %5, i64 noundef %.045.lcssa) #20
  %38 = load i8, ptr %37, align 1
  %39 = icmp eq i8 %38, 32
  br i1 %39, label %40, label %44

40:                                               ; preds = %36
  %41 = sext i32 %.1.lcssa to i64
  %42 = getelementptr inbounds [1024 x i8], ptr %7, i64 0, i64 %41
  store i8 0, ptr %42, align 1
  %43 = add i64 %.045.lcssa, 1
  br label %57

44:                                               ; preds = %36
  %45 = add nsw i32 %.1.lcssa, -1
  %46 = sext i32 %45 to i64
  %47 = getelementptr inbounds [1024 x i8], ptr %7, i64 0, i64 %46
  store i8 45, ptr %47, align 1
  %48 = sext i32 %.1.lcssa to i64
  %49 = getelementptr inbounds [1024 x i8], ptr %7, i64 0, i64 %48
  store i8 0, ptr %49, align 1
  %50 = add i64 %.045.lcssa, -1
  br label %57

51:                                               ; preds = %34
  %52 = sext i32 %.1.lcssa to i64
  %53 = xor i64 %.045.lcssa, -1
  %54 = add i64 %.150.lcssa, %53
  %55 = add i64 %54, %52
  %56 = getelementptr inbounds [1024 x i8], ptr %7, i64 0, i64 %55
  store i8 0, ptr %56, align 1
  br label %57

57:                                               ; preds = %40, %44, %51
  %.3 = phi i64 [ %43, %40 ], [ %50, %44 ], [ %.150.lcssa, %51 ]
  %58 = load ptr, ptr %0, align 8
  %59 = getelementptr inbounds i8, ptr %58, i64 16
  %60 = load ptr, ptr %59, align 8
  call void (ptr, i32, i32, ptr, ...) %60(ptr noundef nonnull align 8 dereferenceable(40) %0, i32 noundef %1, i32 noundef %2, ptr noundef nonnull @.str.1, ptr noundef nonnull %7)
  %61 = and i8 %.04768, 1
  %.not = icmp eq i8 %61, 0
  %brmerge = or i1 %.not, %10
  %.04768.mux = select i1 %.not, i8 %.04768, i8 0
  br i1 %brmerge, label %.loopexit, label %.lr.ph66.preheader

.lr.ph66.preheader:                               ; preds = %57
  call void @llvm.memset.p0.i64(ptr nonnull align 16 %7, i8 32, i64 %11, i1 false)
  br label %.loopexit

.loopexit:                                        ; preds = %.lr.ph66.preheader, %57
  %.148 = phi i8 [ %.04768.mux, %57 ], [ 0, %.lr.ph66.preheader ]
  %62 = call noundef i64 @_ZNKSt7__cxx1112basic_stringIcSt11char_traitsIcESaIcEE6lengthEv(ptr noundef nonnull align 8 dereferenceable(32) %5) #20
  %63 = icmp ult i64 %.3, %62
  br i1 %63, label %.preheader53, label %.loopexit54, !llvm.loop !7

.loopexit54:                                      ; preds = %.loopexit, %6, %28
  ret void
}